; Function Attrs: nounwind uwtable
define noalias noundef ptr @Abc_NtkGetNodeAttributes2(ptr noundef captures(none) %0) local_unnamed_addr #0 {
  %2 = getelementptr i8, ptr %0, i64 32
  %.val20 = load ptr, ptr %2, align 8, !tbaa !3
  %3 = getelementptr i8, ptr %.val20, i64 4
  %.val20.val = load i32, ptr %3, align 4, !tbaa !24
  %4 = add nsw i32 %.val20.val, 1
  %5 = tail call noalias dereferenceable_or_null(16) ptr @malloc(i64 noundef 16) #14
  %or.cond.i.i = icmp ult i32 %.val20.val, 15
  %spec.store.select.i.i = select i1 %or.cond.i.i, i32 16, i32 %4
  %6 = getelementptr inbounds nuw i8, ptr %5, i64 4
  store i32 %spec.store.select.i.i, ptr %5, align 8, !tbaa !45
  %.not.i.i = icmp eq i32 %spec.store.select.i.i, 0
  br i1 %.not.i.i, label %Vec_IntAlloc.exit.thread.i, label %Vec_IntAlloc.exit.i

Vec_IntAlloc.exit.thread.i:                       ; preds = %1
  %7 = getelementptr inbounds nuw i8, ptr %5, i64 8
  store ptr null, ptr %7, align 8, !tbaa !46
  store i32 %4, ptr %6, align 4, !tbaa !47
  br label %Vec_IntStart.exit

Vec_IntAlloc.exit.i:                              ; preds = %1
  %8 = sext i32 %spec.store.select.i.i to i64
  %9 = shl nsw i64 %8, 2
  %10 = tail call noalias ptr @malloc(i64 noundef %9) #14
  %11 = getelementptr inbounds nuw i8, ptr %5, i64 8
  store ptr %10, ptr %11, align 8, !tbaa !46
  store i32 %4, ptr %6, align 4, !tbaa !47
  %.not.i = icmp eq ptr %10, null
  br i1 %.not.i, label %Vec_IntStart.exit, label %12

12:                                               ; preds = %Vec_IntAlloc.exit.i
  %13 = sext i32 %4 to i64
  %14 = shl nsw i64 %13, 2
  tail call void @llvm.memset.p0.i64(ptr nonnull align 4 %10, i8 0, i64 %14, i1 false)
  br label %Vec_IntStart.exit

Vec_IntStart.exit:                                ; preds = %Vec_IntAlloc.exit.thread.i, %Vec_IntAlloc.exit.i, %12
  %.val23 = phi ptr [ null, %Vec_IntAlloc.exit.thread.i ], [ null, %Vec_IntAlloc.exit.i ], [ %10, %12 ]
  %15 = icmp sgt i32 %.val20.val, 0
  br i1 %15, label %.lr.ph, label %.critedge

.lr.ph:                                           ; preds = %Vec_IntStart.exit
  %16 = getelementptr inbounds nuw i8, ptr %0, i64 232
  %17 = getelementptr inbounds nuw i8, ptr %0, i64 224
  %18 = getelementptr inbounds nuw i8, ptr %0, i64 228
  %19 = getelementptr inbounds nuw i8, ptr %0, i64 216
  br label %20

20:                                               ; preds = %.lr.ph, %60
  %indvars.iv = phi i64 [ 0, %.lr.ph ], [ %indvars.iv.next, %60 ]
  %21 = phi ptr [ %.val20, %.lr.ph ], [ %61, %60 ]
  %22 = getelementptr i8, ptr %21, i64 8
  %.val19.val = load ptr, ptr %22, align 8, !tbaa !26
  %23 = getelementptr inbounds nuw ptr, ptr %.val19.val, i64 %indvars.iv
  %24 = load ptr, ptr %23, align 8, !tbaa !27
  %25 = icmp eq ptr %24, null
  br i1 %25, label %60, label %26

26:                                               ; preds = %20
  %27 = getelementptr inbounds nuw i8, ptr %24, i64 16
  %28 = load i32, ptr %27, align 8, !tbaa !50
  %29 = icmp eq i32 %28, 0
  br i1 %29, label %60, label %30

30:                                               ; preds = %26
  %31 = getelementptr i8, ptr %24, i64 20
  %.val21 = load i32, ptr %31, align 4
  %32 = and i32 %.val21, 15
  %.not = icmp eq i32 %32, 7
  br i1 %.not, label %33, label %60

33:                                               ; preds = %30
  %34 = getelementptr i8, ptr %24, i64 44
  %.val22 = load i32, ptr %34, align 4, !tbaa !30
  %35 = icmp sgt i32 %.val22, 1
  br i1 %35, label %36, label %60

36:                                               ; preds = %33
  %37 = tail call i32 @Abc_NodeIsMuxControlType(ptr noundef nonnull %24) #13
  %.not18 = icmp eq i32 %37, 0
  br i1 %.not18, label %38, label %60

38:                                               ; preds = %36
  %39 = load ptr, ptr %16, align 8, !tbaa !73
  %.not.i24 = icmp eq ptr %39, null
  br i1 %.not.i24, label %40, label %Abc_NtkIncrementTravId.exit

40:                                               ; preds = %38
  %.val.i = load ptr, ptr %2, align 8, !tbaa !3
  %41 = getelementptr i8, ptr %.val.i, i64 4
  %.val.val.i = load i32, ptr %41, align 4, !tbaa !24
  %42 = add nsw i32 %.val.val.i, 500
  %43 = load i32, ptr %17, align 8, !tbaa !45
  %.not.i.i.i = icmp slt i32 %43, %42
  br i1 %.not.i.i.i, label %44, label %Vec_IntGrow.exit.i.i

44:                                               ; preds = %40
  %45 = sext i32 %42 to i64
  %46 = shl nsw i64 %45, 2
  %47 = tail call noalias ptr @malloc(i64 noundef %46) #14
  store ptr %47, ptr %16, align 8, !tbaa !46
  store i32 %42, ptr %17, align 8, !tbaa !45
  br label %Vec_IntGrow.exit.i.i

Vec_IntGrow.exit.i.i:                             ; preds = %44, %40
  %48 = phi ptr [ %47, %44 ], [ null, %40 ]
  %49 = icmp sgt i32 %.val.val.i, -500
  br i1 %49, label %.lr.ph.i.i, label %Vec_IntFill.exit.i

.lr.ph.i.i:                                       ; preds = %Vec_IntGrow.exit.i.i
  %50 = zext nneg i32 %42 to i64
  %51 = shl nuw nsw i64 %50, 2
  tail call void @llvm.memset.p0.i64(ptr align 4 %48, i8 0, i64 %51, i1 false), !tbaa !41
  br label %Vec_IntFill.exit.i

Vec_IntFill.exit.i:                               ; preds = %.lr.ph.i.i, %Vec_IntGrow.exit.i.i
  store i32 %42, ptr %18, align 4, !tbaa !47
  br label %Abc_NtkIncrementTravId.exit

Abc_NtkIncrementTravId.exit:                      ; preds = %38, %Vec_IntFill.exit.i
  %52 = load i32, ptr %19, align 8, !tbaa !72
  %53 = add nsw i32 %52, 1
  store i32 %53, ptr %19, align 8, !tbaa !72
  %54 = tail call i32 @Abc_NtkSubDagSize_rec(ptr noundef nonnull %24, ptr noundef nonnull %5)
  %55 = icmp sgt i32 %54, 15
  br i1 %55, label %56, label %60

56:                                               ; preds = %Abc_NtkIncrementTravId.exit
  %57 = load i32, ptr %27, align 8, !tbaa !50
  %58 = sext i32 %57 to i64
  %59 = getelementptr inbounds i32, ptr %.val23, i64 %58
  store i32 1, ptr %59, align 4, !tbaa !41
  br label %60

60:                                               ; preds = %20, %56, %Abc_NtkIncrementTravId.exit, %26, %30, %33, %36
  %indvars.iv.next = add nuw nsw i64 %indvars.iv, 1
  %61 = load ptr, ptr %2, align 8, !tbaa !3
  %62 = getelementptr i8, ptr %61, i64 4
  %.val = load i32, ptr %62, align 4, !tbaa !24
  %63 = sext i32 %.val to i64
  %64 = icmp slt i64 %indvars.iv.next, %63
  br i1 %64, label %20, label %.critedge, !llvm.loop !74

.critedge:                                        ; preds = %60, %Vec_IntStart.exit
  ret ptr %5
}